target datalayout = "e-m:e-p270:32:32-p271:32:32-p272:64:64-i64:64-i128:128-f80:128-n8:16:32:64-S128"
target triple = "x86_64-pc-linux-gnu"

%"class.clang::CodeCompleteOptions" = type { i8, [3 x i8] }
%"class.(anonymous namespace)::AugmentedCodeCompleteConsumer" = type { %"class.clang::CodeCompleteConsumer.base", i64, ptr, ptr }
%"class.clang::CodeCompleteConsumer.base" = type <{ ptr, %"class.clang::CodeCompleteOptions" }>

; Function Attrs: mustprogress nounwind uwtable
define internal noundef nonnull align 8 dereferenceable(96) ptr @_ZN12_GLOBAL__N_129AugmentedCodeCompleteConsumer12getAllocatorEv(ptr noundef nonnull align 8 dereferenceable(40) %0) unnamed_addr #0 align 2 {
  %2 = alloca ptr, align 8
  store ptr %0, ptr %2, align 8
  %3 = load ptr, ptr %2, align 8
  %4 = getelementptr inbounds nuw %"class.(anonymous namespace)::AugmentedCodeCompleteConsumer", ptr %3, i32 0, i32 3
  %5 = load ptr, ptr %4, align 8
  %6 = load ptr, ptr %5, align 8
  %7 = getelementptr inbounds ptr, ptr %6, i64 5
  %8 = load ptr, ptr %7, align 8
  %9 = call noundef nonnull align 8 dereferenceable(96) ptr %8(ptr noundef nonnull align 8 dereferenceable(12) %5)
  ret ptr %9
}